; ModuleID = '6/3964.c'
source_filename = "6/3964.c"
target datalayout = "e-m:e-p270:32:32-p271:32:32-p272:64:64-i64:64-f80:128-n8:16:32:64-S128"
target triple = "x86_64-pc-linux-gnu"

@.str = private unnamed_addr constant [3 x i8] c"%d\00", align 1
@.str.1 = private unnamed_addr constant [5 x i8] c"%d%d\00", align 1
@.str.2 = private unnamed_addr constant [4 x i8] c"%d\0A\00", align 1

; Function Attrs: noinline nounwind uwtable
define dso_local i32 @main() #0 {
  %1 = alloca i32, align 4
  %2 = alloca [500 x i32], align 16
  %3 = alloca i32, align 4
  %4 = alloca i32, align 4
  %5 = alloca i32, align 4
  %6 = alloca i32, align 4
  %7 = alloca [100 x [100 x [100 x i32]]], align 16
  %8 = alloca [500 x [2 x i32]], align 16
  store i32 0, i32* %1, align 4
  %9 = call i32 (i8*, ...) @__isoc99_scanf(i8* getelementptr inbounds ([3 x i8], [3 x i8]* @.str, i64 0, i64 0), i32* %6)
  store i32 0, i32* %3, align 4
  br label %10

10:                                               ; preds = %103, %0
  %11 = load i32, i32* %3, align 4
  %12 = load i32, i32* %6, align 4
  %13 = icmp slt i32 %11, %12
  br i1 %13, label %14, label %106

14:                                               ; preds = %10
  %15 = load i32, i32* %3, align 4
  %16 = sext i32 %15 to i64
  %17 = getelementptr inbounds [500 x i32], [500 x i32]* %2, i64 0, i64 %16
  store i32 0, i32* %17, align 4
  %18 = load i32, i32* %3, align 4
  %19 = sext i32 %18 to i64
  %20 = getelementptr inbounds [500 x [2 x i32]], [500 x [2 x i32]]* %8, i64 0, i64 %19
  %21 = getelementptr inbounds [2 x i32], [2 x i32]* %20, i64 0, i64 0
  %22 = load i32, i32* %3, align 4
  %23 = sext i32 %22 to i64
  %24 = getelementptr inbounds [500 x [2 x i32]], [500 x [2 x i32]]* %8, i64 0, i64 %23
  %25 = getelementptr inbounds [2 x i32], [2 x i32]* %24, i64 0, i64 1
  %26 = call i32 (i8*, ...) @__isoc99_scanf(i8* getelementptr inbounds ([5 x i8], [5 x i8]* @.str.1, i64 0, i64 0), i32* %21, i32* %25)
  store i32 0, i32* %4, align 4
  br label %27

27:                                               ; preds = %99, %14
  %28 = load i32, i32* %4, align 4
  %29 = load i32, i32* %3, align 4
  %30 = sext i32 %29 to i64
  %31 = getelementptr inbounds [500 x [2 x i32]], [500 x [2 x i32]]* %8, i64 0, i64 %30
  %32 = getelementptr inbounds [2 x i32], [2 x i32]* %31, i64 0, i64 0
  %33 = load i32, i32* %32, align 8
  %34 = icmp slt i32 %28, %33
  br i1 %34, label %35, label %102

35:                                               ; preds = %27
  store i32 0, i32* %5, align 4
  br label %36

36:                                               ; preds = %95, %35
  %37 = load i32, i32* %5, align 4
  %38 = load i32, i32* %3, align 4
  %39 = sext i32 %38 to i64
  %40 = getelementptr inbounds [500 x [2 x i32]], [500 x [2 x i32]]* %8, i64 0, i64 %39
  %41 = getelementptr inbounds [2 x i32], [2 x i32]* %40, i64 0, i64 1
  %42 = load i32, i32* %41, align 4
  %43 = icmp slt i32 %37, %42
  br i1 %43, label %44, label %98

44:                                               ; preds = %36
  %45 = load i32, i32* %3, align 4
  %46 = sext i32 %45 to i64
  %47 = getelementptr inbounds [100 x [100 x [100 x i32]]], [100 x [100 x [100 x i32]]]* %7, i64 0, i64 %46
  %48 = load i32, i32* %4, align 4
  %49 = sext i32 %48 to i64
  %50 = getelementptr inbounds [100 x [100 x i32]], [100 x [100 x i32]]* %47, i64 0, i64 %49
  %51 = load i32, i32* %5, align 4
  %52 = sext i32 %51 to i64
  %53 = getelementptr inbounds [100 x i32], [100 x i32]* %50, i64 0, i64 %52
  %54 = call i32 (i8*, ...) @__isoc99_scanf(i8* getelementptr inbounds ([3 x i8], [3 x i8]* @.str, i64 0, i64 0), i32* %53)
  %55 = load i32, i32* %4, align 4
  %56 = icmp eq i32 %55, 0
  br i1 %56, label %78, label %57

57:                                               ; preds = %44
  %58 = load i32, i32* %5, align 4
  %59 = icmp eq i32 %58, 0
  br i1 %59, label %78, label %60

60:                                               ; preds = %57
  %61 = load i32, i32* %4, align 4
  %62 = load i32, i32* %3, align 4
  %63 = sext i32 %62 to i64
  %64 = getelementptr inbounds [500 x [2 x i32]], [500 x [2 x i32]]* %8, i64 0, i64 %63
  %65 = getelementptr inbounds [2 x i32], [2 x i32]* %64, i64 0, i64 0
  %66 = load i32, i32* %65, align 8
  %67 = sub nsw i32 %66, 1
  %68 = icmp eq i32 %61, %67
  br i1 %68, label %78, label %69

69:                                               ; preds = %60
  %70 = load i32, i32* %5, align 4
  %71 = load i32, i32* %3, align 4
  %72 = sext i32 %71 to i64
  %73 = getelementptr inbounds [500 x [2 x i32]], [500 x [2 x i32]]* %8, i64 0, i64 %72
  %74 = getelementptr inbounds [2 x i32], [2 x i32]* %73, i64 0, i64 1
  %75 = load i32, i32* %74, align 4
  %76 = sub nsw i32 %75, 1
  %77 = icmp eq i32 %70, %76
  br i1 %77, label %78, label %94

78:                                               ; preds = %69, %60, %57, %44
  %79 = load i32, i32* %3, align 4
  %80 = sext i32 %79 to i64
  %81 = getelementptr inbounds [100 x [100 x [100 x i32]]], [100 x [100 x [100 x i32]]]* %7, i64 0, i64 %80
  %82 = load i32, i32* %4, align 4
  %83 = sext i32 %82 to i64
  %84 = getelementptr inbounds [100 x [100 x i32]], [100 x [100 x i32]]* %81, i64 0, i64 %83
  %85 = load i32, i32* %5, align 4
  %86 = sext i32 %85 to i64
  %87 = getelementptr inbounds [100 x i32], [100 x i32]* %84, i64 0, i64 %86
  %88 = load i32, i32* %87, align 4
  %89 = load i32, i32* %3, align 4
  %90 = sext i32 %89 to i64
  %91 = getelementptr inbounds [500 x i32], [500 x i32]* %2, i64 0, i64 %90
  %92 = load i32, i32* %91, align 4
  %93 = add nsw i32 %92, %88
  store i32 %93, i32* %91, align 4
  br label %94

94:                                               ; preds = %78, %69
  br label %95

95:                                               ; preds = %94
  %96 = load i32, i32* %5, align 4
  %97 = add nsw i32 %96, 1
  store i32 %97, i32* %5, align 4
  br label %36

98:                                               ; preds = %36
  br label %99

99:                                               ; preds = %98
  %100 = load i32, i32* %4, align 4
  %101 = add nsw i32 %100, 1
  store i32 %101, i32* %4, align 4
  br label %27

102:                                              ; preds = %27
  br label %103

103:                                              ; preds = %102
  %104 = load i32, i32* %3, align 4
  %105 = add nsw i32 %104, 1
  store i32 %105, i32* %3, align 4
  br label %10

106:                                              ; preds = %10
  store i32 0, i32* %3, align 4
  br label %107

107:                                              ; preds = %117, %106
  %108 = load i32, i32* %3, align 4
  %109 = load i32, i32* %6, align 4
  %110 = icmp slt i32 %108, %109
  br i1 %110, label %111, label %120

111:                                              ; preds = %107
  %112 = load i32, i32* %3, align 4
  %113 = sext i32 %112 to i64
  %114 = getelementptr inbounds [500 x i32], [500 x i32]* %2, i64 0, i64 %113
  %115 = load i32, i32* %114, align 4
  %116 = call i32 (i8*, ...) @printf(i8* getelementptr inbounds ([4 x i8], [4 x i8]* @.str.2, i64 0, i64 0), i32 %115)
  br label %117

117:                                              ; preds = %111
  %118 = load i32, i32* %3, align 4
  %119 = add nsw i32 %118, 1
  store i32 %119, i32* %3, align 4
  br label %107

120:                                              ; preds = %107
  ret i32 0
}

declare dso_local i32 @__isoc99_scanf(i8*, ...) #1

declare dso_local i32 @printf(i8*, ...) #1


!llvm.module.flags = !{!0}
!llvm.ident = !{!1}

!0 = !{i32 1, !"wchar_size", i32 4}
!1 = !{!"clang version 10.0.0-4ubuntu1 "}
